; ModuleID = '29/1881.c'
source_filename = "29/1881.c"
target datalayout = "e-m:e-p270:32:32-p271:32:32-p272:64:64-i64:64-f80:128-n8:16:32:64-S128"
target triple = "x86_64-pc-linux-gnu"

@.str = private unnamed_addr constant [3 x i8] c"%d\00", align 1
@.str.1 = private unnamed_addr constant [6 x i8] c"%.3f\0A\00", align 1

; Function Attrs: noinline nounwind uwtable
define dso_local i32 @main() #0 {
  %1 = alloca i32, align 4
  %2 = alloca i32, align 4
  %3 = alloca i32, align 4
  %4 = alloca i32, align 4
  %5 = alloca i32, align 4
  %6 = alloca [100 x float], align 16
  %7 = alloca [100 x float], align 16
  store i32 0, i32* %1, align 4
  %8 = getelementptr inbounds [100 x float], [100 x float]* %6, i64 0, i64 1
  store float 1.000000e+00, float* %8, align 4
  %9 = getelementptr inbounds [100 x float], [100 x float]* %6, i64 0, i64 2
  store float 2.000000e+00, float* %9, align 8
  %10 = getelementptr inbounds [100 x float], [100 x float]* %7, i64 0, i64 1
  store float 2.000000e+00, float* %10, align 4
  %11 = call i32 (i8*, ...) @__isoc99_scanf(i8* getelementptr inbounds ([3 x i8], [3 x i8]* @.str, i64 0, i64 0), i32* %2)
  store i32 0, i32* %4, align 4
  br label %12

12:                                               ; preds = %68, %0
  %13 = load i32, i32* %4, align 4
  %14 = load i32, i32* %2, align 4
  %15 = icmp slt i32 %13, %14
  br i1 %15, label %16, label %71

16:                                               ; preds = %12
  %17 = call i32 (i8*, ...) @__isoc99_scanf(i8* getelementptr inbounds ([3 x i8], [3 x i8]* @.str, i64 0, i64 0), i32* %5)
  store i32 3, i32* %3, align 4
  br label %18

18:                                               ; preds = %58, %16
  %19 = load i32, i32* %3, align 4
  %20 = load i32, i32* %5, align 4
  %21 = add nsw i32 %20, 1
  %22 = icmp sle i32 %19, %21
  br i1 %22, label %23, label %61

23:                                               ; preds = %18
  %24 = load i32, i32* %3, align 4
  %25 = sub nsw i32 %24, 1
  %26 = sext i32 %25 to i64
  %27 = getelementptr inbounds [100 x float], [100 x float]* %6, i64 0, i64 %26
  %28 = load float, float* %27, align 4
  %29 = load i32, i32* %3, align 4
  %30 = sub nsw i32 %29, 2
  %31 = sext i32 %30 to i64
  %32 = getelementptr inbounds [100 x float], [100 x float]* %6, i64 0, i64 %31
  %33 = load float, float* %32, align 4
  %34 = fadd float %28, %33
  %35 = load i32, i32* %3, align 4
  %36 = sext i32 %35 to i64
  %37 = getelementptr inbounds [100 x float], [100 x float]* %6, i64 0, i64 %36
  store float %34, float* %37, align 4
  %38 = load i32, i32* %3, align 4
  %39 = sub nsw i32 %38, 2
  %40 = sext i32 %39 to i64
  %41 = getelementptr inbounds [100 x float], [100 x float]* %7, i64 0, i64 %40
  %42 = load float, float* %41, align 4
  %43 = load i32, i32* %3, align 4
  %44 = sext i32 %43 to i64
  %45 = getelementptr inbounds [100 x float], [100 x float]* %6, i64 0, i64 %44
  %46 = load float, float* %45, align 4
  %47 = load i32, i32* %3, align 4
  %48 = sub nsw i32 %47, 1
  %49 = sext i32 %48 to i64
  %50 = getelementptr inbounds [100 x float], [100 x float]* %6, i64 0, i64 %49
  %51 = load float, float* %50, align 4
  %52 = fdiv float %46, %51
  %53 = fadd float %42, %52
  %54 = load i32, i32* %3, align 4
  %55 = sub nsw i32 %54, 1
  %56 = sext i32 %55 to i64
  %57 = getelementptr inbounds [100 x float], [100 x float]* %7, i64 0, i64 %56
  store float %53, float* %57, align 4
  br label %58

58:                                               ; preds = %23
  %59 = load i32, i32* %3, align 4
  %60 = add nsw i32 %59, 1
  store i32 %60, i32* %3, align 4
  br label %18

61:                                               ; preds = %18
  %62 = load i32, i32* %5, align 4
  %63 = sext i32 %62 to i64
  %64 = getelementptr inbounds [100 x float], [100 x float]* %7, i64 0, i64 %63
  %65 = load float, float* %64, align 4
  %66 = fpext float %65 to double
  %67 = call i32 (i8*, ...) @printf(i8* getelementptr inbounds ([6 x i8], [6 x i8]* @.str.1, i64 0, i64 0), double %66)
  br label %68

68:                                               ; preds = %61
  %69 = load i32, i32* %4, align 4
  %70 = add nsw i32 %69, 1
  store i32 %70, i32* %4, align 4
  br label %12

71:                                               ; preds = %12
  ret i32 0
}

declare dso_local i32 @__isoc99_scanf(i8*, ...) #1

declare dso_local i32 @printf(i8*, ...) #1


!llvm.module.flags = !{!0}
!llvm.ident = !{!1}

!0 = !{i32 1, !"wchar_size", i32 4}
!1 = !{!"clang version 10.0.0-4ubuntu1 "}
